; Function Attrs: mustprogress nounwind uwtable
define internal fastcc void @_ZN5clang24EvaluatedExprVisitorBaseIN4llvm14make_const_ptrEN12_GLOBAL__N_121DynamicThisUseCheckerEE25VisitGenericSelectionExprEPKNS_20GenericSelectionExprE(ptr noundef nonnull align 8 dereferenceable(8) %0, ptr nocapture noundef readonly %1) unnamed_addr #0 align 2 {
  %3 = getelementptr inbounds nuw i8, ptr %1, i64 16
  %4 = load i32, ptr %3, align 8
  %5 = and i32 %4, 1073709056
  %6 = icmp eq i32 %5, 1073709056
  br i1 %6, label %16, label %7

7:                                                ; preds = %2
  %8 = getelementptr inbounds i8, ptr %1, i64 32
  %9 = lshr i32 %4, 30
  %.lobit.i.i = and i32 %9, 1
  %10 = lshr i32 %4, 15
  %11 = and i32 %10, 32767
  %12 = add nuw nsw i32 %.lobit.i.i, %11
  %13 = zext nneg i32 %12 to i64
  %14 = getelementptr inbounds ptr, ptr %8, i64 %13
  %15 = load ptr, ptr %14, align 8
  tail call fastcc void @_ZN5clang15StmtVisitorBaseIN4llvm14make_const_ptrEN12_GLOBAL__N_121DynamicThisUseCheckerEvJEE5VisitEPKNS_4StmtE(ptr noundef nonnull align 1 dereferenceable(1) %0, ptr noundef %15)
  br label %16

16:                                               ; preds = %2, %7
  ret void
}